target datalayout = "e-m:e-p270:32:32-p271:32:32-p272:64:64-i64:64-i128:128-f80:128-n8:16:32:64-S128"
target triple = "x86_64-pc-linux-gnu"

%struct.AVFilterLink = type { ptr, ptr, ptr, ptr, i32, i32, i32, i32, %struct.AVRational, i32, i32, i32, %struct.AVChannelLayout, %struct.AVRational, ptr, i32, %struct.AVFilterFormatsConfig, %struct.AVFilterFormatsConfig }
%struct.AVChannelLayout = type { i32, i32, %union.anon, ptr }
%union.anon = type { i64 }
%struct.AVRational = type { i32, i32 }
%struct.AVFilterFormatsConfig = type { ptr, ptr, ptr, ptr, ptr }
%struct.AVFilterFormats = type { i32, ptr, i32, ptr }
%struct.AVFilterContext = type { ptr, ptr, ptr, ptr, ptr, i32, ptr, ptr, i32, ptr, ptr, i32, i32, ptr, ptr, ptr, ptr, i32, ptr, i32, i32 }

; Function Attrs: nounwind uwtable
define void @ff_formats_unref(ptr noundef %0) #0 {
  %2 = alloca ptr, align 8
  %3 = alloca i32, align 4
  %4 = alloca i32, align 4
  %5 = alloca i32, align 4
  store ptr %0, ptr %2, align 8, !tbaa !45
  br label %6

6:                                                ; preds = %1
  call void @llvm.lifetime.start.p0(i64 4, ptr %3) #7
  store i32 -1, ptr %3, align 4, !tbaa !21
  %7 = load ptr, ptr %2, align 8, !tbaa !45
  %8 = load ptr, ptr %7, align 8, !tbaa !27
  %9 = icmp ne ptr %8, null
  br i1 %9, label %11, label %10

10:                                               ; preds = %6
  store i32 1, ptr %4, align 4
  br label %94

11:                                               ; preds = %6
  br label %12

12:                                               ; preds = %11
  call void @llvm.lifetime.start.p0(i64 4, ptr %5) #7
  store i32 0, ptr %5, align 4, !tbaa !21
  br label %13

13:                                               ; preds = %34, %12
  %14 = load i32, ptr %5, align 4, !tbaa !21
  %15 = load ptr, ptr %2, align 8, !tbaa !45
  %16 = load ptr, ptr %15, align 8, !tbaa !27
  %17 = getelementptr inbounds nuw %struct.AVFilterFormats, ptr %16, i32 0, i32 2
  %18 = load i32, ptr %17, align 8, !tbaa !49
  %19 = icmp ult i32 %14, %18
  br i1 %19, label %20, label %37

20:                                               ; preds = %13
  %21 = load ptr, ptr %2, align 8, !tbaa !45
  %22 = load ptr, ptr %21, align 8, !tbaa !27
  %23 = getelementptr inbounds nuw %struct.AVFilterFormats, ptr %22, i32 0, i32 3
  %24 = load ptr, ptr %23, align 8, !tbaa !50
  %25 = load i32, ptr %5, align 4, !tbaa !21
  %26 = sext i32 %25 to i64
  %27 = getelementptr inbounds ptr, ptr %24, i64 %26
  %28 = load ptr, ptr %27, align 8, !tbaa !45
  %29 = load ptr, ptr %2, align 8, !tbaa !45
  %30 = icmp eq ptr %28, %29
  br i1 %30, label %31, label %33

31:                                               ; preds = %20
  %32 = load i32, ptr %5, align 4, !tbaa !21
  store i32 %32, ptr %3, align 4, !tbaa !21
  br label %37

33:                                               ; preds = %20
  br label %34

34:                                               ; preds = %33
  %35 = load i32, ptr %5, align 4, !tbaa !21
  %36 = add nsw i32 %35, 1
  store i32 %36, ptr %5, align 4, !tbaa !21
  br label %13, !llvm.loop !51

37:                                               ; preds = %31, %13
  call void @llvm.lifetime.end.p0(i64 4, ptr %5) #7
  br label %38

38:                                               ; preds = %37
  br label %39

39:                                               ; preds = %38
  %40 = load i32, ptr %3, align 4, !tbaa !21
  %41 = icmp sge i32 %40, 0
  br i1 %41, label %42, label %72

42:                                               ; preds = %39
  %43 = load ptr, ptr %2, align 8, !tbaa !45
  %44 = load ptr, ptr %43, align 8, !tbaa !27
  %45 = getelementptr inbounds nuw %struct.AVFilterFormats, ptr %44, i32 0, i32 3
  %46 = load ptr, ptr %45, align 8, !tbaa !50
  %47 = load i32, ptr %3, align 4, !tbaa !21
  %48 = sext i32 %47 to i64
  %49 = getelementptr inbounds ptr, ptr %46, i64 %48
  %50 = load ptr, ptr %2, align 8, !tbaa !45
  %51 = load ptr, ptr %50, align 8, !tbaa !27
  %52 = getelementptr inbounds nuw %struct.AVFilterFormats, ptr %51, i32 0, i32 3
  %53 = load ptr, ptr %52, align 8, !tbaa !50
  %54 = load i32, ptr %3, align 4, !tbaa !21
  %55 = sext i32 %54 to i64
  %56 = getelementptr inbounds ptr, ptr %53, i64 %55
  %57 = getelementptr inbounds ptr, ptr %56, i64 1
  %58 = load ptr, ptr %2, align 8, !tbaa !45
  %59 = load ptr, ptr %58, align 8, !tbaa !27
  %60 = getelementptr inbounds nuw %struct.AVFilterFormats, ptr %59, i32 0, i32 2
  %61 = load i32, ptr %60, align 8, !tbaa !49
  %62 = load i32, ptr %3, align 4, !tbaa !21
  %63 = sub i32 %61, %62
  %64 = sub i32 %63, 1
  %65 = zext i32 %64 to i64
  %66 = mul i64 8, %65
  call void @llvm.memmove.p0.p0.i64(ptr align 8 %49, ptr align 8 %57, i64 %66, i1 false)
  %67 = load ptr, ptr %2, align 8, !tbaa !45
  %68 = load ptr, ptr %67, align 8, !tbaa !27
  %69 = getelementptr inbounds nuw %struct.AVFilterFormats, ptr %68, i32 0, i32 2
  %70 = load i32, ptr %69, align 8, !tbaa !49
  %71 = add i32 %70, -1
  store i32 %71, ptr %69, align 8, !tbaa !49
  br label %72

72:                                               ; preds = %42, %39
  %73 = load ptr, ptr %2, align 8, !tbaa !45
  %74 = load ptr, ptr %73, align 8, !tbaa !27
  %75 = getelementptr inbounds nuw %struct.AVFilterFormats, ptr %74, i32 0, i32 2
  %76 = load i32, ptr %75, align 8, !tbaa !49
  %77 = icmp ne i32 %76, 0
  br i1 %77, label %92, label %78

78:                                               ; preds = %72
  br label %79

79:                                               ; preds = %78
  br label %80

80:                                               ; preds = %79
  br label %81

81:                                               ; preds = %80
  %82 = load ptr, ptr %2, align 8, !tbaa !45
  %83 = load ptr, ptr %82, align 8, !tbaa !27
  %84 = getelementptr inbounds nuw %struct.AVFilterFormats, ptr %83, i32 0, i32 1
  %85 = load ptr, ptr %84, align 8, !tbaa !32
  call void @av_free(ptr noundef %85)
  %86 = load ptr, ptr %2, align 8, !tbaa !45
  %87 = load ptr, ptr %86, align 8, !tbaa !27
  %88 = getelementptr inbounds nuw %struct.AVFilterFormats, ptr %87, i32 0, i32 3
  %89 = load ptr, ptr %88, align 8, !tbaa !50
  call void @av_free(ptr noundef %89)
  %90 = load ptr, ptr %2, align 8, !tbaa !45
  %91 = load ptr, ptr %90, align 8, !tbaa !27
  call void @av_free(ptr noundef %91)
  br label %92

92:                                               ; preds = %81, %72
  %93 = load ptr, ptr %2, align 8, !tbaa !45
  store ptr null, ptr %93, align 8, !tbaa !27
  store i32 0, ptr %4, align 4
  br label %94

94:                                               ; preds = %92, %10
  call void @llvm.lifetime.end.p0(i64 4, ptr %3) #7
  %95 = load i32, ptr %4, align 4
  switch i32 %95, label %98 [
    i32 0, label %96
    i32 1, label %97
  ]

96:                                               ; preds = %94
  br label %97

97:                                               ; preds = %94, %96
  ret void

98:                                               ; preds = %94
  unreachable
}

; Function Attrs: nounwind uwtable
define i32 @ff_formats_ref(ptr noundef %0, ptr noundef %1) #0 {
  %3 = alloca i32, align 4
  %4 = alloca ptr, align 8
  %5 = alloca ptr, align 8
  %6 = alloca ptr, align 8
  %7 = alloca i32, align 4
  store ptr %0, ptr %4, align 8, !tbaa !27
  store ptr %1, ptr %5, align 8, !tbaa !45
  call void @llvm.lifetime.start.p0(i64 8, ptr %6) #7
  %8 = load ptr, ptr %4, align 8, !tbaa !27
  %9 = icmp ne ptr %8, null
  br i1 %9, label %11, label %10

10:                                               ; preds = %2
  store i32 -12, ptr %3, align 4
  store i32 1, ptr %7, align 4
  br label %40

11:                                               ; preds = %2
  %12 = load ptr, ptr %4, align 8, !tbaa !27
  %13 = getelementptr inbounds nuw %struct.AVFilterFormats, ptr %12, i32 0, i32 3
  %14 = load ptr, ptr %13, align 8, !tbaa !50
  %15 = load ptr, ptr %4, align 8, !tbaa !27
  %16 = getelementptr inbounds nuw %struct.AVFilterFormats, ptr %15, i32 0, i32 2
  %17 = load i32, ptr %16, align 8, !tbaa !49
  %18 = add i32 %17, 1
  %19 = zext i32 %18 to i64
  %20 = call ptr @av_realloc_array(ptr noundef %14, i64 noundef 8, i64 noundef %19)
  store ptr %20, ptr %6, align 8, !tbaa !71
  %21 = load ptr, ptr %6, align 8, !tbaa !71
  %22 = icmp ne ptr %21, null
  br i1 %22, label %24, label %23

23:                                               ; preds = %11
  call void @ff_formats_unref(ptr noundef %4)
  store i32 -12, ptr %3, align 4
  store i32 1, ptr %7, align 4
  br label %40

24:                                               ; preds = %11
  %25 = load ptr, ptr %6, align 8, !tbaa !71
  %26 = load ptr, ptr %4, align 8, !tbaa !27
  %27 = getelementptr inbounds nuw %struct.AVFilterFormats, ptr %26, i32 0, i32 3
  store ptr %25, ptr %27, align 8, !tbaa !50
  %28 = load ptr, ptr %5, align 8, !tbaa !45
  %29 = load ptr, ptr %4, align 8, !tbaa !27
  %30 = getelementptr inbounds nuw %struct.AVFilterFormats, ptr %29, i32 0, i32 3
  %31 = load ptr, ptr %30, align 8, !tbaa !50
  %32 = load ptr, ptr %4, align 8, !tbaa !27
  %33 = getelementptr inbounds nuw %struct.AVFilterFormats, ptr %32, i32 0, i32 2
  %34 = load i32, ptr %33, align 8, !tbaa !49
  %35 = add i32 %34, 1
  store i32 %35, ptr %33, align 8, !tbaa !49
  %36 = zext i32 %34 to i64
  %37 = getelementptr inbounds nuw ptr, ptr %31, i64 %36
  store ptr %28, ptr %37, align 8, !tbaa !45
  %38 = load ptr, ptr %4, align 8, !tbaa !27
  %39 = load ptr, ptr %5, align 8, !tbaa !45
  store ptr %38, ptr %39, align 8, !tbaa !27
  store i32 0, ptr %3, align 4
  store i32 1, ptr %7, align 4
  br label %40

40:                                               ; preds = %24, %23, %10
  call void @llvm.lifetime.end.p0(i64 8, ptr %6) #7
  %41 = load i32, ptr %3, align 4
  ret i32 %41
}

; Function Attrs: nounwind uwtable
define i32 @ff_set_common_color_spaces(ptr noundef %0, ptr noundef %1) #0 {
  %3 = alloca i32, align 4
  %4 = alloca ptr, align 8
  %5 = alloca ptr, align 8
  %6 = alloca i32, align 4
  %7 = alloca i32, align 4
  %8 = alloca ptr, align 8
  %9 = alloca i32, align 4
  %10 = alloca ptr, align 8
  %11 = alloca i32, align 4
  store ptr %0, ptr %4, align 8, !tbaa !74
  store ptr %1, ptr %5, align 8, !tbaa !27
  call void @llvm.lifetime.start.p0(i64 4, ptr %6) #7
  %12 = load ptr, ptr %5, align 8, !tbaa !27
  %13 = icmp ne ptr %12, null
  br i1 %13, label %15, label %14

14:                                               ; preds = %2
  store i32 -12, ptr %3, align 4
  store i32 1, ptr %7, align 4
  br label %132

15:                                               ; preds = %2
  store i32 0, ptr %6, align 4, !tbaa !21
  br label %16

16:                                               ; preds = %67, %15
  %17 = load i32, ptr %6, align 4, !tbaa !21
  %18 = load ptr, ptr %4, align 8, !tbaa !74
  %19 = getelementptr inbounds nuw %struct.AVFilterContext, ptr %18, i32 0, i32 5
  %20 = load i32, ptr %19, align 8, !tbaa !75
  %21 = icmp ult i32 %17, %20
  br i1 %21, label %22, label %70

22:                                               ; preds = %16
  call void @llvm.lifetime.start.p0(i64 8, ptr %8) #7
  %23 = load ptr, ptr %4, align 8, !tbaa !74
  %24 = getelementptr inbounds nuw %struct.AVFilterContext, ptr %23, i32 0, i32 4
  %25 = load ptr, ptr %24, align 8, !tbaa !84
  %26 = load i32, ptr %6, align 4, !tbaa !21
  %27 = sext i32 %26 to i64
  %28 = getelementptr inbounds ptr, ptr %25, i64 %27
  %29 = load ptr, ptr %28, align 8, !tbaa !4
  store ptr %29, ptr %8, align 8, !tbaa !4
  %30 = load ptr, ptr %8, align 8, !tbaa !4
  %31 = icmp ne ptr %30, null
  br i1 %31, label %32, label %63

32:                                               ; preds = %22
  %33 = load ptr, ptr %8, align 8, !tbaa !4
  %34 = getelementptr inbounds nuw %struct.AVFilterLink, ptr %33, i32 0, i32 17
  %35 = getelementptr inbounds nuw %struct.AVFilterFormatsConfig, ptr %34, i32 0, i32 3
  %36 = load ptr, ptr %35, align 8, !tbaa !95
  %37 = icmp ne ptr %36, null
  br i1 %37, label %63, label %38

38:                                               ; preds = %32
  %39 = load ptr, ptr %8, align 8, !tbaa !4
  %40 = getelementptr inbounds nuw %struct.AVFilterLink, ptr %39, i32 0, i32 4
  %41 = load i32, ptr %40, align 8, !tbaa !9
  %42 = icmp eq i32 %41, 0
  br i1 %42, label %43, label %63

43:                                               ; preds = %38
  call void @llvm.lifetime.start.p0(i64 4, ptr %9) #7
  %44 = load ptr, ptr %5, align 8, !tbaa !27
  %45 = load ptr, ptr %4, align 8, !tbaa !74
  %46 = getelementptr inbounds nuw %struct.AVFilterContext, ptr %45, i32 0, i32 4
  %47 = load ptr, ptr %46, align 8, !tbaa !84
  %48 = load i32, ptr %6, align 4, !tbaa !21
  %49 = sext i32 %48 to i64
  %50 = getelementptr inbounds ptr, ptr %47, i64 %49
  %51 = load ptr, ptr %50, align 8, !tbaa !4
  %52 = getelementptr inbounds nuw %struct.AVFilterLink, ptr %51, i32 0, i32 17
  %53 = getelementptr inbounds nuw %struct.AVFilterFormatsConfig, ptr %52, i32 0, i32 3
  %54 = call i32 @ff_formats_ref(ptr noundef %44, ptr noundef %53)
  store i32 %54, ptr %9, align 4, !tbaa !21
  %55 = load i32, ptr %9, align 4, !tbaa !21
  %56 = icmp slt i32 %55, 0
  br i1 %56, label %57, label %59

57:                                               ; preds = %43
  %58 = load i32, ptr %9, align 4, !tbaa !21
  store i32 %58, ptr %3, align 4
  store i32 1, ptr %7, align 4
  br label %60

59:                                               ; preds = %43
  store i32 0, ptr %7, align 4
  br label %60

60:                                               ; preds = %59, %57
  call void @llvm.lifetime.end.p0(i64 4, ptr %9) #7
  %61 = load i32, ptr %7, align 4
  switch i32 %61, label %64 [
    i32 0, label %62
  ]

62:                                               ; preds = %60
  br label %63

63:                                               ; preds = %62, %38, %32, %22
  store i32 0, ptr %7, align 4
  br label %64

64:                                               ; preds = %63, %60
  call void @llvm.lifetime.end.p0(i64 8, ptr %8) #7
  %65 = load i32, ptr %7, align 4
  switch i32 %65, label %132 [
    i32 0, label %66
  ]

66:                                               ; preds = %64
  br label %67

67:                                               ; preds = %66
  %68 = load i32, ptr %6, align 4, !tbaa !21
  %69 = add nsw i32 %68, 1
  store i32 %69, ptr %6, align 4, !tbaa !21
  br label %16, !llvm.loop !96

70:                                               ; preds = %16
  store i32 0, ptr %6, align 4, !tbaa !21
  br label %71

71:                                               ; preds = %122, %70
  %72 = load i32, ptr %6, align 4, !tbaa !21
  %73 = load ptr, ptr %4, align 8, !tbaa !74
  %74 = getelementptr inbounds nuw %struct.AVFilterContext, ptr %73, i32 0, i32 8
  %75 = load i32, ptr %74, align 8, !tbaa !87
  %76 = icmp ult i32 %72, %75
  br i1 %76, label %77, label %125

77:                                               ; preds = %71
  call void @llvm.lifetime.start.p0(i64 8, ptr %10) #7
  %78 = load ptr, ptr %4, align 8, !tbaa !74
  %79 = getelementptr inbounds nuw %struct.AVFilterContext, ptr %78, i32 0, i32 7
  %80 = load ptr, ptr %79, align 8, !tbaa !88
  %81 = load i32, ptr %6, align 4, !tbaa !21
  %82 = sext i32 %81 to i64
  %83 = getelementptr inbounds ptr, ptr %80, i64 %82
  %84 = load ptr, ptr %83, align 8, !tbaa !4
  store ptr %84, ptr %10, align 8, !tbaa !4
  %85 = load ptr, ptr %10, align 8, !tbaa !4
  %86 = icmp ne ptr %85, null
  br i1 %86, label %87, label %118

87:                                               ; preds = %77
  %88 = load ptr, ptr %10, align 8, !tbaa !4
  %89 = getelementptr inbounds nuw %struct.AVFilterLink, ptr %88, i32 0, i32 16
  %90 = getelementptr inbounds nuw %struct.AVFilterFormatsConfig, ptr %89, i32 0, i32 3
  %91 = load ptr, ptr %90, align 8, !tbaa !97
  %92 = icmp ne ptr %91, null
  br i1 %92, label %118, label %93

93:                                               ; preds = %87
  %94 = load ptr, ptr %10, align 8, !tbaa !4
  %95 = getelementptr inbounds nuw %struct.AVFilterLink, ptr %94, i32 0, i32 4
  %96 = load i32, ptr %95, align 8, !tbaa !9
  %97 = icmp eq i32 %96, 0
  br i1 %97, label %98, label %118

98:                                               ; preds = %93
  call void @llvm.lifetime.start.p0(i64 4, ptr %11) #7
  %99 = load ptr, ptr %5, align 8, !tbaa !27
  %100 = load ptr, ptr %4, align 8, !tbaa !74
  %101 = getelementptr inbounds nuw %struct.AVFilterContext, ptr %100, i32 0, i32 7
  %102 = load ptr, ptr %101, align 8, !tbaa !88
  %103 = load i32, ptr %6, align 4, !tbaa !21
  %104 = sext i32 %103 to i64
  %105 = getelementptr inbounds ptr, ptr %102, i64 %104
  %106 = load ptr, ptr %105, align 8, !tbaa !4
  %107 = getelementptr inbounds nuw %struct.AVFilterLink, ptr %106, i32 0, i32 16
  %108 = getelementptr inbounds nuw %struct.AVFilterFormatsConfig, ptr %107, i32 0, i32 3
  %109 = call i32 @ff_formats_ref(ptr noundef %99, ptr noundef %108)
  store i32 %109, ptr %11, align 4, !tbaa !21
  %110 = load i32, ptr %11, align 4, !tbaa !21
  %111 = icmp slt i32 %110, 0
  br i1 %111, label %112, label %114

112:                                              ; preds = %98
  %113 = load i32, ptr %11, align 4, !tbaa !21
  store i32 %113, ptr %3, align 4
  store i32 1, ptr %7, align 4
  br label %115

114:                                              ; preds = %98
  store i32 0, ptr %7, align 4
  br label %115

115:                                              ; preds = %114, %112
  call void @llvm.lifetime.end.p0(i64 4, ptr %11) #7
  %116 = load i32, ptr %7, align 4
  switch i32 %116, label %119 [
    i32 0, label %117
  ]

117:                                              ; preds = %115
  br label %118

118:                                              ; preds = %117, %93, %87, %77
  store i32 0, ptr %7, align 4
  br label %119

119:                                              ; preds = %118, %115
  call void @llvm.lifetime.end.p0(i64 8, ptr %10) #7
  %120 = load i32, ptr %7, align 4
  switch i32 %120, label %132 [
    i32 0, label %121
  ]

121:                                              ; preds = %119
  br label %122

122:                                              ; preds = %121
  %123 = load i32, ptr %6, align 4, !tbaa !21
  %124 = add nsw i32 %123, 1
  store i32 %124, ptr %6, align 4, !tbaa !21
  br label %71, !llvm.loop !98

125:                                              ; preds = %71
  %126 = load ptr, ptr %5, align 8, !tbaa !27
  %127 = getelementptr inbounds nuw %struct.AVFilterFormats, ptr %126, i32 0, i32 2
  %128 = load i32, ptr %127, align 8, !tbaa !49
  %129 = icmp ne i32 %128, 0
  br i1 %129, label %131, label %130

130:                                              ; preds = %125
  call void @ff_formats_unref(ptr noundef %5)
  br label %131

131:                                              ; preds = %130, %125
  store i32 0, ptr %3, align 4
  store i32 1, ptr %7, align 4
  br label %132

132:                                              ; preds = %131, %119, %64, %14
  call void @llvm.lifetime.end.p0(i64 4, ptr %6) #7
  %133 = load i32, ptr %3, align 4
  ret i32 %133
}